target datalayout = "e-m:e-p270:32:32-p271:32:32-p272:64:64-i64:64-i128:128-f80:128-n8:16:32:64-S128"
target triple = "x86_64-pc-linux-gnu"

%struct.rb_ractor_struct = type { %struct.rb_ractor_pub, %struct.rb_ractor_sync, i64, %union.pthread_cond_t, %struct.anon.17, i64, i64, i64, i32, %struct.ccan_list_node, ptr, ptr, i64, i64, i64, i64, i64, i64, ptr }
%struct.rb_ractor_pub = type { i64, i32, %struct.rb_hook_list_struct }
%struct.rb_hook_list_struct = type { ptr, i32, i32, i8, i8 }
%struct.rb_ractor_sync = type { %union.pthread_mutex_t, i8, i8, %struct.rb_ractor_queue, %struct.rb_ractor_queue, %struct.rb_ractor_basket, %struct.ractor_wait }
%union.pthread_mutex_t = type { %struct.__pthread_mutex_s }
%struct.__pthread_mutex_s = type { i32, i32, i32, i32, i32, i16, i16, %struct.__pthread_internal_list }
%struct.__pthread_internal_list = type { ptr, ptr }
%struct.rb_ractor_queue = type { ptr, i32, i32, i32, i32, i32 }
%struct.rb_ractor_basket = type { %union.anon.13, i64, %union.anon.14 }
%union.anon.13 = type { i32 }
%union.anon.14 = type { %struct.anon.15 }
%struct.anon.15 = type { i64, i8 }
%struct.ractor_wait = type { i32, i32, ptr }
%union.pthread_cond_t = type { %struct.__pthread_cond_s }
%struct.__pthread_cond_s = type { %union.__atomic_wide_counter, %union.__atomic_wide_counter, [2 x i32], [2 x i32], i32, i32, [2 x i32] }
%union.__atomic_wide_counter = type { i64 }
%struct.anon.17 = type { %struct.ccan_list_head, i32, i32, i32, %struct.rb_thread_sched, ptr, ptr }
%struct.ccan_list_head = type { %struct.ccan_list_node }
%struct.rb_thread_sched = type { %union.pthread_mutex_t, ptr, i8, i8, i8, %struct.ccan_list_head, i32, %struct.ccan_list_node }
%struct.ccan_list_node = type { ptr, ptr }

@.str = private unnamed_addr constant [12 x i8] c"../ractor.c\00", align 1
@rb_eRactorError = internal global i64 0, align 8
@rb_eRactorClosedError = internal global i64 0, align 8
@.str.71 = private unnamed_addr constant [36 x i8] c"The incoming port is already closed\00", align 1
@.str.72 = private unnamed_addr constant [44 x i8] c"can not call receive/receive_if recursively\00", align 1

; Function Attrs: nounwind sspstrong uwtable
define internal void @ractor_queue_advance(ptr noundef %0, ptr noundef %1) #0 {
  %3 = alloca ptr, align 8
  %4 = alloca ptr, align 8
  store ptr %0, ptr %3, align 8, !tbaa !7
  store ptr %1, ptr %4, align 8, !tbaa !93
  %5 = load ptr, ptr %3, align 8, !tbaa !7
  call void @ASSERT_ractor_locking(ptr noundef %5)
  %6 = load ptr, ptr %4, align 8, !tbaa !93
  %7 = getelementptr inbounds nuw %struct.rb_ractor_queue, ptr %6, i32 0, i32 5
  %8 = load i32, ptr %7, align 8, !tbaa !193
  %9 = icmp eq i32 %8, 0
  br i1 %9, label %10, label %29

10:                                               ; preds = %2
  %11 = load ptr, ptr %4, align 8, !tbaa !93
  %12 = getelementptr inbounds nuw %struct.rb_ractor_queue, ptr %11, i32 0, i32 2
  %13 = load i32, ptr %12, align 4, !tbaa !192
  %14 = add i32 %13, -1
  store i32 %14, ptr %12, align 4, !tbaa !192
  %15 = load ptr, ptr %4, align 8, !tbaa !93
  %16 = getelementptr inbounds nuw %struct.rb_ractor_queue, ptr %15, i32 0, i32 1
  %17 = load i32, ptr %16, align 8, !tbaa !220
  %18 = add i32 %17, 1
  %19 = load ptr, ptr %4, align 8, !tbaa !93
  %20 = getelementptr inbounds nuw %struct.rb_ractor_queue, ptr %19, i32 0, i32 3
  %21 = load i32, ptr %20, align 8, !tbaa !221
  %22 = srem i32 %18, %21
  %23 = load ptr, ptr %4, align 8, !tbaa !93
  %24 = getelementptr inbounds nuw %struct.rb_ractor_queue, ptr %23, i32 0, i32 1
  store i32 %22, ptr %24, align 8, !tbaa !220
  %25 = load ptr, ptr %4, align 8, !tbaa !93
  %26 = getelementptr inbounds nuw %struct.rb_ractor_queue, ptr %25, i32 0, i32 4
  %27 = load i32, ptr %26, align 4, !tbaa !191
  %28 = add i32 %27, 1
  store i32 %28, ptr %26, align 4, !tbaa !191
  br label %34

29:                                               ; preds = %2
  %30 = load ptr, ptr %3, align 8, !tbaa !7
  %31 = load ptr, ptr %4, align 8, !tbaa !93
  %32 = call ptr @ractor_queue_at(ptr noundef %30, ptr noundef %31, i32 noundef 0)
  %33 = getelementptr inbounds nuw %struct.rb_ractor_basket, ptr %32, i32 0, i32 0
  store i32 5, ptr %33, align 8, !tbaa !104
  br label %34

34:                                               ; preds = %29, %10
  ret void
}

; Function Attrs: inlinehint nounwind sspstrong uwtable
define internal zeroext i1 @basket_type_p(ptr noundef %0, i32 noundef %1) #4 {
  %3 = alloca ptr, align 8
  %4 = alloca i32, align 4
  store ptr %0, ptr %3, align 8, !tbaa !105
  store i32 %1, ptr %4, align 4, !tbaa !14
  %5 = load ptr, ptr %3, align 8, !tbaa !105
  %6 = getelementptr inbounds nuw %struct.rb_ractor_basket, ptr %5, i32 0, i32 0
  %7 = load i32, ptr %6, align 8, !tbaa !104
  %8 = load i32, ptr %4, align 4, !tbaa !14
  %9 = icmp eq i32 %7, %8
  ret i1 %9
}

; Function Attrs: nounwind sspstrong uwtable
define internal void @ASSERT_ractor_unlocking(ptr noundef %0) #0 {
  %2 = alloca ptr, align 8
  store ptr %0, ptr %2, align 8, !tbaa !7
  ret void
}

; Function Attrs: nounwind sspstrong uwtable
define internal void @ractor_unlock(ptr noundef %0, ptr noundef %1, i32 noundef %2) #0 {
  %4 = alloca ptr, align 8
  %5 = alloca ptr, align 8
  %6 = alloca i32, align 4
  store ptr %0, ptr %4, align 8, !tbaa !7
  store ptr %1, ptr %5, align 8, !tbaa !12
  store i32 %2, ptr %6, align 4, !tbaa !14
  %7 = load ptr, ptr %4, align 8, !tbaa !7
  call void @ASSERT_ractor_locking(ptr noundef %7)
  %8 = load ptr, ptr %4, align 8, !tbaa !7
  %9 = getelementptr inbounds nuw %struct.rb_ractor_struct, ptr %8, i32 0, i32 1
  %10 = getelementptr inbounds nuw %struct.rb_ractor_sync, ptr %9, i32 0, i32 0
  call void @rb_native_mutex_unlock(ptr noundef %10)
  ret void
}

; Function Attrs: nounwind sspstrong uwtable
define internal void @ractor_queue_compact(ptr noundef %0, ptr noundef %1) #0 {
  %3 = alloca ptr, align 8
  %4 = alloca ptr, align 8
  store ptr %0, ptr %3, align 8, !tbaa !7
  store ptr %1, ptr %4, align 8, !tbaa !93
  %5 = load ptr, ptr %3, align 8, !tbaa !7
  call void @ASSERT_ractor_locking(ptr noundef %5)
  br label %6

6:                                                ; preds = %18, %2
  %7 = load ptr, ptr %4, align 8, !tbaa !93
  %8 = getelementptr inbounds nuw %struct.rb_ractor_queue, ptr %7, i32 0, i32 2
  %9 = load i32, ptr %8, align 4, !tbaa !192
  %10 = icmp sgt i32 %9, 0
  br i1 %10, label %11, label %16

11:                                               ; preds = %6
  %12 = load ptr, ptr %3, align 8, !tbaa !7
  %13 = load ptr, ptr %4, align 8, !tbaa !93
  %14 = call ptr @ractor_queue_at(ptr noundef %12, ptr noundef %13, i32 noundef 0)
  %15 = call zeroext i1 @basket_type_p(ptr noundef %14, i32 noundef 5)
  br label %16

16:                                               ; preds = %11, %6
  %17 = phi i1 [ false, %6 ], [ %15, %11 ]
  br i1 %17, label %18, label %21

18:                                               ; preds = %16
  %19 = load ptr, ptr %3, align 8, !tbaa !7
  %20 = load ptr, ptr %4, align 8, !tbaa !93
  call void @ractor_queue_advance(ptr noundef %19, ptr noundef %20)
  br label %6, !llvm.loop !237

21:                                               ; preds = %16
  ret void
}

; Function Attrs: nounwind sspstrong uwtable
define internal ptr @ractor_queue_at(ptr noundef %0, ptr noundef %1, i32 noundef %2) #0 {
  %4 = alloca ptr, align 8
  %5 = alloca ptr, align 8
  %6 = alloca i32, align 4
  store ptr %0, ptr %4, align 8, !tbaa !7
  store ptr %1, ptr %5, align 8, !tbaa !93
  store i32 %2, ptr %6, align 4, !tbaa !14
  %7 = load ptr, ptr %4, align 8, !tbaa !7
  %8 = icmp ne ptr %7, null
  br i1 %8, label %9, label %11

9:                                                ; preds = %3
  %10 = load ptr, ptr %4, align 8, !tbaa !7
  call void @ASSERT_ractor_locking(ptr noundef %10)
  br label %11

11:                                               ; preds = %9, %3
  %12 = load ptr, ptr %5, align 8, !tbaa !93
  %13 = getelementptr inbounds nuw %struct.rb_ractor_queue, ptr %12, i32 0, i32 0
  %14 = load ptr, ptr %13, align 8, !tbaa !219
  %15 = load ptr, ptr %5, align 8, !tbaa !93
  %16 = getelementptr inbounds nuw %struct.rb_ractor_queue, ptr %15, i32 0, i32 1
  %17 = load i32, ptr %16, align 8, !tbaa !220
  %18 = load i32, ptr %6, align 4, !tbaa !14
  %19 = add i32 %17, %18
  %20 = load ptr, ptr %5, align 8, !tbaa !93
  %21 = getelementptr inbounds nuw %struct.rb_ractor_queue, ptr %20, i32 0, i32 3
  %22 = load i32, ptr %21, align 8, !tbaa !221
  %23 = srem i32 %19, %22
  %24 = sext i32 %23 to i64
  %25 = getelementptr %struct.rb_ractor_basket, ptr %14, i64 %24
  ret ptr %25
}

; Function Attrs: nounwind sspstrong uwtable
define internal zeroext i1 @ractor_queue_skip_p(ptr noundef %0, ptr noundef %1, i32 noundef %2) #0 {
  %4 = alloca ptr, align 8
  %5 = alloca ptr, align 8
  %6 = alloca i32, align 4
  %7 = alloca ptr, align 8
  store ptr %0, ptr %4, align 8, !tbaa !7
  store ptr %1, ptr %5, align 8, !tbaa !93
  store i32 %2, ptr %6, align 4, !tbaa !14
  call void @llvm.lifetime.start.p0(i64 8, ptr %7) #16
  %8 = load ptr, ptr %4, align 8, !tbaa !7
  %9 = load ptr, ptr %5, align 8, !tbaa !93
  %10 = load i32, ptr %6, align 4, !tbaa !14
  %11 = call ptr @ractor_queue_at(ptr noundef %8, ptr noundef %9, i32 noundef %10)
  store ptr %11, ptr %7, align 8, !tbaa !105
  %12 = load ptr, ptr %7, align 8, !tbaa !105
  %13 = call zeroext i1 @basket_type_p(ptr noundef %12, i32 noundef 5)
  br i1 %13, label %17, label %14

14:                                               ; preds = %3
  %15 = load ptr, ptr %7, align 8, !tbaa !105
  %16 = call zeroext i1 @basket_type_p(ptr noundef %15, i32 noundef 6)
  br label %17

17:                                               ; preds = %14, %3
  %18 = phi i1 [ true, %3 ], [ %16, %14 ]
  call void @llvm.lifetime.end.p0(i64 8, ptr %7) #16
  ret i1 %18
}

; Function Attrs: nounwind sspstrong uwtable
define internal void @ASSERT_ractor_locking(ptr noundef %0) #0 {
  %2 = alloca ptr, align 8
  store ptr %0, ptr %2, align 8, !tbaa !7
  ret void
}

; Function Attrs: nounwind sspstrong uwtable
define internal void @ractor_lock(ptr noundef %0, ptr noundef %1, i32 noundef %2) #0 {
  %4 = alloca ptr, align 8
  %5 = alloca ptr, align 8
  %6 = alloca i32, align 4
  store ptr %0, ptr %4, align 8, !tbaa !7
  store ptr %1, ptr %5, align 8, !tbaa !12
  store i32 %2, ptr %6, align 4, !tbaa !14
  %7 = load ptr, ptr %4, align 8, !tbaa !7
  call void @ASSERT_ractor_unlocking(ptr noundef %7)
  %8 = load ptr, ptr %4, align 8, !tbaa !7
  %9 = getelementptr inbounds nuw %struct.rb_ractor_struct, ptr %8, i32 0, i32 1
  %10 = getelementptr inbounds nuw %struct.rb_ractor_sync, ptr %9, i32 0, i32 0
  call void @rb_native_mutex_lock(ptr noundef %10)
  ret void
}

; Function Attrs: nounwind sspstrong uwtable
define internal void @ractor_unlock_self(ptr noundef %0, ptr noundef %1, i32 noundef %2) #0 {
  %4 = alloca ptr, align 8
  %5 = alloca ptr, align 8
  %6 = alloca i32, align 4
  store ptr %0, ptr %4, align 8, !tbaa !7
  store ptr %1, ptr %5, align 8, !tbaa !12
  store i32 %2, ptr %6, align 4, !tbaa !14
  %7 = load ptr, ptr %4, align 8, !tbaa !7
  %8 = load ptr, ptr %5, align 8, !tbaa !12
  %9 = load i32, ptr %6, align 4, !tbaa !14
  call void @ractor_unlock(ptr noundef %7, ptr noundef %8, i32 noundef %9)
  ret void
}

; Function Attrs: nounwind sspstrong uwtable
define internal zeroext i1 @ractor_queue_deq(ptr noundef %0, ptr noundef %1, ptr noundef %2) #0 {
  %4 = alloca i1, align 1
  %5 = alloca ptr, align 8
  %6 = alloca ptr, align 8
  %7 = alloca ptr, align 8
  %8 = alloca i32, align 4
  %9 = alloca i32, align 4
  %10 = alloca ptr, align 8
  store ptr %0, ptr %5, align 8, !tbaa !7
  store ptr %1, ptr %6, align 8, !tbaa !93
  store ptr %2, ptr %7, align 8, !tbaa !105
  %11 = load ptr, ptr %5, align 8, !tbaa !7
  call void @ASSERT_ractor_locking(ptr noundef %11)
  call void @llvm.lifetime.start.p0(i64 4, ptr %8) #16
  store i32 0, ptr %8, align 4, !tbaa !14
  br label %12

12:                                               ; preds = %36, %3
  %13 = load i32, ptr %8, align 4, !tbaa !14
  %14 = load ptr, ptr %6, align 8, !tbaa !93
  %15 = getelementptr inbounds nuw %struct.rb_ractor_queue, ptr %14, i32 0, i32 2
  %16 = load i32, ptr %15, align 4, !tbaa !192
  %17 = icmp slt i32 %13, %16
  br i1 %17, label %19, label %18

18:                                               ; preds = %12
  store i32 2, ptr %9, align 4
  br label %39

19:                                               ; preds = %12
  %20 = load ptr, ptr %5, align 8, !tbaa !7
  %21 = load ptr, ptr %6, align 8, !tbaa !93
  %22 = load i32, ptr %8, align 4, !tbaa !14
  %23 = call zeroext i1 @ractor_queue_skip_p(ptr noundef %20, ptr noundef %21, i32 noundef %22)
  br i1 %23, label %35, label %24

24:                                               ; preds = %19
  call void @llvm.lifetime.start.p0(i64 8, ptr %10) #16
  %25 = load ptr, ptr %5, align 8, !tbaa !7
  %26 = load ptr, ptr %6, align 8, !tbaa !93
  %27 = load i32, ptr %8, align 4, !tbaa !14
  %28 = call ptr @ractor_queue_at(ptr noundef %25, ptr noundef %26, i32 noundef %27)
  store ptr %28, ptr %10, align 8, !tbaa !105
  %29 = load ptr, ptr %7, align 8, !tbaa !105
  %30 = load ptr, ptr %10, align 8, !tbaa !105
  call void @llvm.memcpy.p0.p0.i64(ptr align 8 %29, ptr align 8 %30, i64 32, i1 false), !tbaa.struct !145
  %31 = load ptr, ptr %10, align 8, !tbaa !105
  %32 = getelementptr inbounds nuw %struct.rb_ractor_basket, ptr %31, i32 0, i32 0
  store i32 5, ptr %32, align 8, !tbaa !104
  %33 = load ptr, ptr %5, align 8, !tbaa !7
  %34 = load ptr, ptr %6, align 8, !tbaa !93
  call void @ractor_queue_compact(ptr noundef %33, ptr noundef %34)
  store i1 true, ptr %4, align 1
  store i32 1, ptr %9, align 4
  call void @llvm.lifetime.end.p0(i64 8, ptr %10) #16
  br label %39

35:                                               ; preds = %19
  br label %36

36:                                               ; preds = %35
  %37 = load i32, ptr %8, align 4, !tbaa !14
  %38 = add i32 %37, 1
  store i32 %38, ptr %8, align 4, !tbaa !14
  br label %12, !llvm.loop !236

39:                                               ; preds = %24, %18
  call void @llvm.lifetime.end.p0(i64 4, ptr %8) #16
  %40 = load i32, ptr %9, align 4
  switch i32 %40, label %44 [
    i32 2, label %41
    i32 1, label %42
  ]

41:                                               ; preds = %39
  store i1 false, ptr %4, align 1
  br label %42

42:                                               ; preds = %41, %39
  %43 = load i1, ptr %4, align 1
  ret i1 %43

44:                                               ; preds = %39
  unreachable
}

; Function Attrs: nounwind sspstrong uwtable
define internal void @ractor_lock_self(ptr noundef %0, ptr noundef %1, i32 noundef %2) #0 {
  %4 = alloca ptr, align 8
  %5 = alloca ptr, align 8
  %6 = alloca i32, align 4
  store ptr %0, ptr %4, align 8, !tbaa !7
  store ptr %1, ptr %5, align 8, !tbaa !12
  store i32 %2, ptr %6, align 4, !tbaa !14
  %7 = load ptr, ptr %4, align 8, !tbaa !7
  %8 = load ptr, ptr %5, align 8, !tbaa !12
  %9 = load i32, ptr %6, align 4, !tbaa !14
  call void @ractor_lock(ptr noundef %7, ptr noundef %8, i32 noundef %9)
  ret void
}

; Function Attrs: nounwind sspstrong uwtable
define internal void @ractor_recursive_receive_if(ptr noundef %0) #0 {
  %2 = alloca ptr, align 8
  store ptr %0, ptr %2, align 8, !tbaa !7
  %3 = load ptr, ptr %2, align 8, !tbaa !7
  %4 = getelementptr inbounds nuw %struct.rb_ractor_struct, ptr %3, i32 0, i32 2
  %5 = load i64, ptr %4, align 8, !tbaa !213
  %6 = icmp ne i64 %5, 0
  br i1 %6, label %7, label %15

7:                                                ; preds = %1
  %8 = load ptr, ptr %2, align 8, !tbaa !7
  %9 = getelementptr inbounds nuw %struct.rb_ractor_struct, ptr %8, i32 0, i32 2
  %10 = load i64, ptr %9, align 8, !tbaa !213
  %11 = call i64 @rb_mutex_owned_p(i64 noundef %10)
  %12 = icmp ne i64 %11, 0
  br i1 %12, label %13, label %15

13:                                               ; preds = %7
  %14 = load i64, ptr @rb_eRactorError, align 8, !tbaa !16
  call void (i64, ptr, ...) @rb_raise(i64 noundef %14, ptr noundef @.str.72) #30
  unreachable

15:                                               ; preds = %7, %1
  ret void
}

; Function Attrs: nounwind sspstrong uwtable
define internal i64 @ractor_try_receive(ptr noundef %0, ptr noundef %1, ptr noundef %2) #0 {
  %4 = alloca i64, align 8
  %5 = alloca ptr, align 8
  %6 = alloca ptr, align 8
  %7 = alloca ptr, align 8
  %8 = alloca %struct.rb_ractor_basket, align 8
  %9 = alloca i8, align 1
  %10 = alloca i32, align 4
  store ptr %0, ptr %5, align 8, !tbaa !88
  store ptr %1, ptr %6, align 8, !tbaa !7
  store ptr %2, ptr %7, align 8, !tbaa !93
  call void @llvm.lifetime.start.p0(i64 32, ptr %8) #16
  %11 = load ptr, ptr %6, align 8, !tbaa !7
  call void @ractor_recursive_receive_if(ptr noundef %11)
  call void @llvm.lifetime.start.p0(i64 1, ptr %9) #16
  store i8 0, ptr %9, align 1, !tbaa !89
  %12 = load ptr, ptr %6, align 8, !tbaa !7
  call void @ractor_lock_self(ptr noundef %12, ptr noundef @.str, i32 noundef 727)
  %13 = load ptr, ptr %6, align 8, !tbaa !7
  %14 = load ptr, ptr %7, align 8, !tbaa !93
  %15 = call zeroext i1 @ractor_queue_deq(ptr noundef %13, ptr noundef %14, ptr noundef %8)
  %16 = zext i1 %15 to i8
  store i8 %16, ptr %9, align 1, !tbaa !89
  %17 = load ptr, ptr %6, align 8, !tbaa !7
  call void @ractor_unlock_self(ptr noundef %17, ptr noundef @.str, i32 noundef 732)
  %18 = load i8, ptr %9, align 1, !tbaa !89, !range !91, !noundef !92
  %19 = trunc i8 %18 to i1
  br i1 %19, label %29, label %20

20:                                               ; preds = %3
  %21 = load ptr, ptr %6, align 8, !tbaa !7
  %22 = getelementptr inbounds nuw %struct.rb_ractor_struct, ptr %21, i32 0, i32 1
  %23 = getelementptr inbounds nuw %struct.rb_ractor_sync, ptr %22, i32 0, i32 1
  %24 = load i8, ptr %23, align 8, !tbaa !102, !range !91, !noundef !92
  %25 = trunc i8 %24 to i1
  br i1 %25, label %26, label %28

26:                                               ; preds = %20
  %27 = load i64, ptr @rb_eRactorClosedError, align 8, !tbaa !16
  call void (i64, ptr, ...) @rb_raise(i64 noundef %27, ptr noundef @.str.71) #30
  unreachable

28:                                               ; preds = %20
  store i64 36, ptr %4, align 8
  store i32 1, ptr %10, align 4
  br label %31

29:                                               ; preds = %3
  %30 = call i64 @ractor_basket_accept(ptr noundef %8)
  store i64 %30, ptr %4, align 8
  store i32 1, ptr %10, align 4
  br label %31

31:                                               ; preds = %29, %28
  call void @llvm.lifetime.end.p0(i64 1, ptr %9) #16
  call void @llvm.lifetime.end.p0(i64 32, ptr %8) #16
  %32 = load i64, ptr %4, align 8
  ret i64 %32
}