; Function Attrs: nounwind sspstrong uwtable
define internal fastcc i64 @ractor_try_receive(ptr noundef %0, ptr noundef captures(none) %1) unnamed_addr #0 {
  %3 = alloca %struct.rb_ractor_basket, align 8
  call void @llvm.lifetime.start.p0(i64 32, ptr nonnull %3) #19
  %4 = getelementptr i8, ptr %0, i64 200
  %.val = load i64, ptr %4, align 8, !tbaa !116
  %.not.i = icmp eq i64 %.val, 0
  br i1 %.not.i, label %ractor_recursive_receive_if.exit, label %5

5:                                                ; preds = %2
  %6 = tail call i64 @rb_mutex_owned_p(i64 noundef %.val) #19
  %.not2.i = icmp eq i64 %6, 0
  br i1 %.not2.i, label %ractor_recursive_receive_if.exit, label %7

7:                                                ; preds = %5
  %8 = load i64, ptr @rb_eRactorError, align 8, !tbaa !80
  tail call void (i64, ptr, ...) @rb_raise(i64 noundef %8, ptr noundef nonnull @.str.72) #27
  unreachable

ractor_recursive_receive_if.exit:                 ; preds = %2, %5
  %9 = getelementptr inbounds nuw i8, ptr %0, i64 40
  tail call void @rb_native_mutex_lock(ptr noundef nonnull %9) #19
  %10 = getelementptr inbounds nuw i8, ptr %1, i64 12
  %11 = load i32, ptr %10, align 4, !tbaa !86
  %.not8.i = icmp sgt i32 %11, 0
  br i1 %.not8.i, label %.lr.ph.i, label %.loopexit2

.lr.ph.i:                                         ; preds = %ractor_recursive_receive_if.exit
  %12 = load ptr, ptr %1, align 8, !tbaa !88
  %13 = getelementptr inbounds nuw i8, ptr %1, i64 8
  %14 = load i32, ptr %13, align 8, !tbaa !87
  %15 = getelementptr inbounds nuw i8, ptr %1, i64 16
  %16 = load i32, ptr %15, align 8, !tbaa !85
  br label %19

17:                                               ; preds = %19
  %18 = add nuw nsw i32 %.0179.i, 1
  %exitcond.not.i = icmp eq i32 %18, %11
  br i1 %exitcond.not.i, label %.loopexit2, label %19, !llvm.loop !107

19:                                               ; preds = %17, %.lr.ph.i
  %.0179.i = phi i32 [ 0, %.lr.ph.i ], [ %18, %17 ]
  %20 = add i32 %.0179.i, %14
  %21 = srem i32 %20, %16
  %22 = sext i32 %21 to i64
  %23 = getelementptr %struct.rb_ractor_basket, ptr %12, i64 %22
  %.val4.i.i = load i32, ptr %23, align 8, !tbaa !100
  %24 = add i32 %.val4.i.i, -5
  %spec.select.i.i = icmp ult i32 %24, 2
  br i1 %spec.select.i.i, label %17, label %25

25:                                               ; preds = %19
  call void @llvm.memcpy.p0.p0.i64(ptr noundef nonnull align 8 dereferenceable(32) %3, ptr noundef nonnull align 8 dereferenceable(32) %23, i64 32, i1 false), !tbaa.struct !120
  store i32 5, ptr %23, align 8, !tbaa !100
  %26 = load i32, ptr %10, align 4, !tbaa !86
  %27 = icmp sgt i32 %26, 0
  br i1 %27, label %.lr.ph.i.i, label %.loopexit

.lr.ph.i.i:                                       ; preds = %25
  %28 = getelementptr inbounds nuw i8, ptr %1, i64 24
  %29 = getelementptr inbounds nuw i8, ptr %1, i64 20
  br label %30

30:                                               ; preds = %ractor_queue_advance.exit.i.i, %.lr.ph.i.i
  %31 = phi i32 [ %26, %.lr.ph.i.i ], [ %49, %ractor_queue_advance.exit.i.i ]
  %32 = load ptr, ptr %1, align 8, !tbaa !88
  %33 = load i32, ptr %13, align 8, !tbaa !87
  %34 = load i32, ptr %15, align 8, !tbaa !85
  %35 = srem i32 %33, %34
  %36 = sext i32 %35 to i64
  %37 = getelementptr %struct.rb_ractor_basket, ptr %32, i64 %36
  %.val.i.i = load i32, ptr %37, align 8, !tbaa !100
  %38 = icmp eq i32 %.val.i.i, 5
  br i1 %38, label %39, label %.loopexit

39:                                               ; preds = %30
  %40 = load i32, ptr %28, align 8, !tbaa !108
  %41 = icmp eq i32 %40, 0
  br i1 %41, label %42, label %48

42:                                               ; preds = %39
  %43 = add nsw i32 %31, -1
  store i32 %43, ptr %10, align 4, !tbaa !86
  %44 = add i32 %33, 1
  %45 = srem i32 %44, %34
  store i32 %45, ptr %13, align 8, !tbaa !87
  %46 = load i32, ptr %29, align 4, !tbaa !109
  %47 = add i32 %46, 1
  store i32 %47, ptr %29, align 4, !tbaa !109
  br label %ractor_queue_advance.exit.i.i

48:                                               ; preds = %39
  store i32 5, ptr %37, align 8, !tbaa !100
  %.pre.i.i = load i32, ptr %10, align 4, !tbaa !86
  br label %ractor_queue_advance.exit.i.i

ractor_queue_advance.exit.i.i:                    ; preds = %48, %42
  %49 = phi i32 [ %43, %42 ], [ %.pre.i.i, %48 ]
  %50 = icmp sgt i32 %49, 0
  br i1 %50, label %30, label %.loopexit, !llvm.loop !110

.loopexit2:                                       ; preds = %17, %ractor_recursive_receive_if.exit
  tail call void @rb_native_mutex_unlock(ptr noundef nonnull %9) #19
  %51 = getelementptr inbounds nuw i8, ptr %0, i64 80
  %52 = load i8, ptr %51, align 8, !tbaa !104, !range !98, !noundef !99
  %53 = trunc nuw i8 %52 to i1
  br i1 %53, label %54, label %57

54:                                               ; preds = %.loopexit2
  %55 = load i64, ptr @rb_eRactorClosedError, align 8, !tbaa !80
  tail call void (i64, ptr, ...) @rb_raise(i64 noundef %55, ptr noundef nonnull @.str.71) #27
  unreachable

.loopexit:                                        ; preds = %30, %ractor_queue_advance.exit.i.i, %25
  tail call void @rb_native_mutex_unlock(ptr noundef nonnull %9) #19
  %56 = call fastcc i64 @ractor_basket_accept(ptr noundef %3)
  br label %57

57:                                               ; preds = %.loopexit2, %.loopexit
  %.0 = phi i64 [ %56, %.loopexit ], [ 36, %.loopexit2 ]
  call void @llvm.lifetime.end.p0(i64 32, ptr nonnull %3) #19
  ret i64 %.0
}